target datalayout = "e-m:e-p270:32:32-p271:32:32-p272:64:64-i64:64-i128:128-f80:128-n8:16:32:64-S128"
target triple = "x86_64-pc-linux-gnu"

%struct.stat = type { i64, i64, i64, i32, i32, i32, i32, i64, i64, i64, i64, %struct.timespec, %struct.timespec, %struct.timespec, [3 x i64] }
%struct.timespec = type { i64, i64 }
%struct.dirent = type { i64, i64, i16, i8, [256 x i8] }

@.str.20 = private unnamed_addr constant [2 x i8] c".\00", align 1
@.str.21 = private unnamed_addr constant [3 x i8] c"..\00", align 1
@.str.22 = private unnamed_addr constant [6 x i8] c"%s/%s\00", align 1

; Function Attrs: nounwind uwtable
define dso_local i32 @dirRemove(ptr noundef %0) #0 {
  %2 = alloca i32, align 4
  %3 = alloca ptr, align 8
  %4 = alloca ptr, align 8
  %5 = alloca %struct.stat, align 8
  %6 = alloca ptr, align 8
  %7 = alloca [4097 x i8], align 16
  %8 = alloca i32, align 4
  %9 = alloca i32, align 4
  store ptr %0, ptr %3, align 8, !tbaa !5
  call void @llvm.lifetime.start.p0(i64 8, ptr %4) #13
  call void @llvm.lifetime.start.p0(i64 144, ptr %5) #13
  call void @llvm.lifetime.start.p0(i64 8, ptr %6) #13
  call void @llvm.lifetime.start.p0(i64 4097, ptr %7) #13
  %10 = load ptr, ptr %3, align 8, !tbaa !5
  %11 = call ptr @opendir(ptr noundef %10)
  store ptr %11, ptr %4, align 8, !tbaa !70
  %12 = icmp eq ptr %11, null
  br i1 %12, label %13, label %14

13:                                               ; preds = %1
  store i32 -1, ptr %2, align 4
  store i32 1, ptr %8, align 4
  br label %93

14:                                               ; preds = %1
  br label %15

15:                                               ; preds = %82, %80, %31, %14
  %16 = load ptr, ptr %4, align 8, !tbaa !70
  %17 = call ptr @readdir64(ptr noundef %16)
  store ptr %17, ptr %6, align 8, !tbaa !72
  %18 = icmp ne ptr %17, null
  br i1 %18, label %19, label %83

19:                                               ; preds = %15
  %20 = load ptr, ptr %6, align 8, !tbaa !72
  %21 = getelementptr inbounds nuw %struct.dirent, ptr %20, i32 0, i32 4
  %22 = getelementptr inbounds [256 x i8], ptr %21, i64 0, i64 0
  %23 = call i32 @strcmp(ptr noundef %22, ptr noundef @.str.20) #15
  %24 = icmp ne i32 %23, 0
  br i1 %24, label %25, label %31

25:                                               ; preds = %19
  %26 = load ptr, ptr %6, align 8, !tbaa !72
  %27 = getelementptr inbounds nuw %struct.dirent, ptr %26, i32 0, i32 4
  %28 = getelementptr inbounds [256 x i8], ptr %27, i64 0, i64 0
  %29 = call i32 @strcmp(ptr noundef %28, ptr noundef @.str.21) #15
  %30 = icmp ne i32 %29, 0
  br i1 %30, label %32, label %31

31:                                               ; preds = %25, %19
  br label %15, !llvm.loop !74

32:                                               ; preds = %25
  %33 = getelementptr inbounds [4097 x i8], ptr %7, i64 0, i64 0
  %34 = load ptr, ptr %3, align 8, !tbaa !5
  %35 = load ptr, ptr %6, align 8, !tbaa !72
  %36 = getelementptr inbounds nuw %struct.dirent, ptr %35, i32 0, i32 4
  %37 = getelementptr inbounds [256 x i8], ptr %36, i64 0, i64 0
  %38 = call i32 (ptr, i64, ptr, ...) @snprintf(ptr noundef %33, i64 noundef 4097, ptr noundef @.str.22, ptr noundef %34, ptr noundef %37) #13
  call void @llvm.lifetime.start.p0(i64 4, ptr %9) #13
  %39 = getelementptr inbounds [4097 x i8], ptr %7, i64 0, i64 0
  %40 = call i32 (ptr, i32, ...) @open64(ptr noundef %39, i32 noundef 2048)
  store i32 %40, ptr %9, align 4, !tbaa !10
  %41 = load i32, ptr %9, align 4, !tbaa !10
  %42 = icmp eq i32 %41, -1
  br i1 %42, label %43, label %46

43:                                               ; preds = %32
  %44 = load ptr, ptr %4, align 8, !tbaa !70
  %45 = call i32 @closedir(ptr noundef %44)
  store i32 -1, ptr %2, align 4
  store i32 1, ptr %8, align 4
  br label %80

46:                                               ; preds = %32
  %47 = load i32, ptr %9, align 4, !tbaa !10
  %48 = call i32 @fstat64(i32 noundef %47, ptr noundef %5) #13
  %49 = icmp eq i32 %48, -1
  br i1 %49, label %50, label %55

50:                                               ; preds = %46
  %51 = load i32, ptr %9, align 4, !tbaa !10
  %52 = call i32 @close(i32 noundef %51)
  %53 = load ptr, ptr %4, align 8, !tbaa !70
  %54 = call i32 @closedir(ptr noundef %53)
  store i32 -1, ptr %2, align 4
  store i32 1, ptr %8, align 4
  br label %80

55:                                               ; preds = %46
  %56 = load i32, ptr %9, align 4, !tbaa !10
  %57 = call i32 @close(i32 noundef %56)
  %58 = getelementptr inbounds nuw %struct.stat, ptr %5, i32 0, i32 3
  %59 = load i32, ptr %58, align 8, !tbaa !67
  %60 = and i32 %59, 61440
  %61 = icmp eq i32 %60, 16384
  %62 = zext i1 %61 to i32
  %63 = icmp ne i32 %62, 0
  br i1 %63, label %64, label %72

64:                                               ; preds = %55
  %65 = getelementptr inbounds [4097 x i8], ptr %7, i64 0, i64 0
  %66 = call i32 @dirRemove(ptr noundef %65)
  %67 = icmp eq i32 %66, -1
  br i1 %67, label %68, label %71

68:                                               ; preds = %64
  %69 = load ptr, ptr %4, align 8, !tbaa !70
  %70 = call i32 @closedir(ptr noundef %69)
  store i32 -1, ptr %2, align 4
  store i32 1, ptr %8, align 4
  br label %80

71:                                               ; preds = %64
  store i32 2, ptr %8, align 4
  br label %80, !llvm.loop !74

72:                                               ; preds = %55
  %73 = getelementptr inbounds [4097 x i8], ptr %7, i64 0, i64 0
  %74 = call i32 @unlink(ptr noundef %73) #13
  %75 = icmp ne i32 %74, 0
  br i1 %75, label %76, label %79

76:                                               ; preds = %72
  %77 = load ptr, ptr %4, align 8, !tbaa !70
  %78 = call i32 @closedir(ptr noundef %77)
  store i32 -1, ptr %2, align 4
  store i32 1, ptr %8, align 4
  br label %80

79:                                               ; preds = %72
  store i32 0, ptr %8, align 4
  br label %80

80:                                               ; preds = %79, %76, %71, %68, %50, %43
  call void @llvm.lifetime.end.p0(i64 4, ptr %9) #13
  %81 = load i32, ptr %8, align 4
  switch i32 %81, label %93 [
    i32 0, label %82
    i32 2, label %15
  ]

82:                                               ; preds = %80
  br label %15, !llvm.loop !74

83:                                               ; preds = %15
  %84 = load ptr, ptr %3, align 8, !tbaa !5
  %85 = call i32 @rmdir(ptr noundef %84) #13
  %86 = icmp ne i32 %85, 0
  br i1 %86, label %87, label %90

87:                                               ; preds = %83
  %88 = load ptr, ptr %4, align 8, !tbaa !70
  %89 = call i32 @closedir(ptr noundef %88)
  store i32 -1, ptr %2, align 4
  store i32 1, ptr %8, align 4
  br label %93

90:                                               ; preds = %83
  %91 = load ptr, ptr %4, align 8, !tbaa !70
  %92 = call i32 @closedir(ptr noundef %91)
  store i32 0, ptr %2, align 4
  store i32 1, ptr %8, align 4
  br label %93

93:                                               ; preds = %90, %87, %80, %13
  call void @llvm.lifetime.end.p0(i64 4097, ptr %7) #13
  call void @llvm.lifetime.end.p0(i64 8, ptr %6) #13
  call void @llvm.lifetime.end.p0(i64 144, ptr %5) #13
  call void @llvm.lifetime.end.p0(i64 8, ptr %4) #13
  %94 = load i32, ptr %2, align 4
  ret i32 %94
}