; Function Attrs: nounwind uwtable
define dso_local noundef range(i32 -1, 1) i32 @dirRemove(ptr noundef %0) local_unnamed_addr #4 {
  %2 = alloca %struct.stat, align 8
  %3 = alloca [4097 x i8], align 16
  call void @llvm.lifetime.start.p0(i64 144, ptr nonnull %2) #29
  call void @llvm.lifetime.start.p0(i64 4097, ptr nonnull %3) #29
  %4 = tail call ptr @opendir(ptr noundef %0)
  %5 = icmp eq ptr %4, null
  br i1 %5, label %.thread, label %.preheader

.preheader:                                       ; preds = %1
  %6 = tail call ptr @readdir64(ptr noundef nonnull %4) #29
  %.not33 = icmp eq ptr %6, null
  br i1 %.not33, label %._crit_edge, label %sub_0.lr.ph

sub_0.lr.ph:                                      ; preds = %.preheader
  %7 = getelementptr inbounds nuw i8, ptr %2, i64 24
  br label %sub_0

sub_0:                                            ; preds = %sub_0.lr.ph, %.backedge
  %8 = phi ptr [ %6, %sub_0.lr.ph ], [ %19, %.backedge ]
  %9 = getelementptr inbounds nuw i8, ptr %8, i64 19
  %10 = load i8, ptr %9, align 1
  %.not34 = icmp eq i8 %10, 46
  br i1 %.not34, label %.tail, label %.tail26.thread

.tail:                                            ; preds = %sub_0
  %11 = getelementptr inbounds nuw i8, ptr %8, i64 20
  %12 = load i8, ptr %11, align 1
  %13 = icmp eq i8 %12, 0
  br i1 %13, label %.backedge, label %sub_128

sub_128:                                          ; preds = %.tail
  %14 = getelementptr inbounds nuw i8, ptr %8, i64 20
  %15 = load i8, ptr %14, align 1
  %.not36 = icmp eq i8 %15, 46
  br i1 %.not36, label %.tail26, label %.tail26.thread

.tail26:                                          ; preds = %sub_128
  %16 = getelementptr inbounds nuw i8, ptr %8, i64 21
  %17 = load i8, ptr %16, align 1
  %18 = icmp eq i8 %17, 0
  br i1 %18, label %.backedge, label %.tail26.thread

.backedge:                                        ; preds = %35, %40, %.tail, %.tail26
  %19 = call ptr @readdir64(ptr noundef nonnull %4) #29
  %.not = icmp eq ptr %19, null
  br i1 %.not, label %._crit_edge, label %sub_0, !llvm.loop !57

.tail26.thread:                                   ; preds = %sub_0, %sub_128, %.tail26
  %20 = call i32 (ptr, i64, ptr, ...) @snprintf(ptr noundef nonnull dereferenceable(1) %3, i64 noundef 4097, ptr noundef nonnull @.str.22, ptr noundef %0, ptr noundef nonnull %9) #29
  %21 = call i32 (ptr, i32, ...) @open64(ptr noundef nonnull %3, i32 noundef 2048) #29
  %22 = icmp eq i32 %21, -1
  br i1 %22, label %23, label %25

23:                                               ; preds = %.tail26.thread
  %24 = call i32 @closedir(ptr noundef nonnull %4)
  br label %.thread

25:                                               ; preds = %.tail26.thread
  %26 = call i32 @fstat64(i32 noundef %21, ptr noundef nonnull %2) #29
  %27 = icmp eq i32 %26, -1
  %28 = call i32 @close(i32 noundef %21) #29
  br i1 %27, label %29, label %31

29:                                               ; preds = %25
  %30 = call i32 @closedir(ptr noundef nonnull %4)
  br label %.thread

31:                                               ; preds = %25
  %32 = load i32, ptr %7, align 8, !tbaa !58
  %33 = and i32 %32, 61440
  %34 = icmp eq i32 %33, 16384
  br i1 %34, label %35, label %40

35:                                               ; preds = %31
  %36 = call i32 @dirRemove(ptr noundef nonnull %3)
  %37 = icmp eq i32 %36, -1
  br i1 %37, label %38, label %.backedge, !llvm.loop !57

38:                                               ; preds = %35
  %39 = call i32 @closedir(ptr noundef nonnull %4)
  br label %.thread

40:                                               ; preds = %31
  %41 = call i32 @unlink(ptr noundef nonnull %3) #29
  %.not24 = icmp eq i32 %41, 0
  br i1 %.not24, label %.backedge, label %42

42:                                               ; preds = %40
  %43 = call i32 @closedir(ptr noundef nonnull %4)
  br label %.thread

._crit_edge:                                      ; preds = %.backedge, %.preheader
  %44 = call i32 @rmdir(ptr noundef %0) #29
  %.not21 = icmp ne i32 %44, 0
  %45 = call i32 @closedir(ptr noundef nonnull %4)
  %. = sext i1 %.not21 to i32
  br label %.thread

.thread:                                          ; preds = %42, %38, %29, %23, %._crit_edge, %1
  %.0 = phi i32 [ -1, %1 ], [ %., %._crit_edge ], [ -1, %23 ], [ -1, %29 ], [ -1, %38 ], [ -1, %42 ]
  call void @llvm.lifetime.end.p0(i64 4097, ptr nonnull %3) #29
  call void @llvm.lifetime.end.p0(i64 144, ptr nonnull %2) #29
  ret i32 %.0
}